target datalayout = "e-m:e-p270:32:32-p271:32:32-p272:64:64-i64:64-i128:128-f80:128-n8:16:32:64-S128"
target triple = "x86_64-pc-linux-gnu"

%struct.MovTextContext = type { ptr, ptr, ptr, ptr, ptr, i32, i32, %struct.StyleBox, %struct.AVBPrint, %struct.HighlightBox, %struct.HilightcolorBox, i8, %struct.StyleBox, i16, ptr, i32, double, i32 }
%struct.AVBPrint = type { ptr, i32, i32, i32, [1 x i8], [1000 x i8] }
%struct.HighlightBox = type { i16, i16 }
%struct.HilightcolorBox = type { i32 }
%struct.StyleBox = type { i16, i16, i8, i16, i8, i32 }

; Function Attrs: nounwind uwtable
define internal void @mov_text_alpha_set(ptr noundef %0, i8 noundef zeroext %1) #1 {
  %3 = alloca ptr, align 8
  %4 = alloca i8, align 1
  store ptr %0, ptr %3, align 8, !tbaa !29
  store i8 %1, ptr %4, align 1, !tbaa !63
  %5 = load ptr, ptr %3, align 8, !tbaa !29
  %6 = getelementptr inbounds nuw %struct.MovTextContext, ptr %5, i32 0, i32 7
  %7 = getelementptr inbounds nuw %struct.StyleBox, ptr %6, i32 0, i32 5
  %8 = load i32, ptr %7, align 4, !tbaa !106
  %9 = and i32 %8, 255
  %10 = load i8, ptr %4, align 1, !tbaa !63
  %11 = zext i8 %10 to i32
  %12 = icmp eq i32 %9, %11
  br i1 %12, label %13, label %14

13:                                               ; preds = %2
  br label %30

14:                                               ; preds = %2
  %15 = load ptr, ptr %3, align 8, !tbaa !29
  %16 = call i32 @mov_text_style_start(ptr noundef %15)
  %17 = icmp ne i32 %16, 0
  br i1 %17, label %18, label %30

18:                                               ; preds = %14
  %19 = load ptr, ptr %3, align 8, !tbaa !29
  %20 = getelementptr inbounds nuw %struct.MovTextContext, ptr %19, i32 0, i32 7
  %21 = getelementptr inbounds nuw %struct.StyleBox, ptr %20, i32 0, i32 5
  %22 = load i32, ptr %21, align 4, !tbaa !106
  %23 = and i32 %22, -256
  %24 = load i8, ptr %4, align 1, !tbaa !63
  %25 = zext i8 %24 to i32
  %26 = or i32 %23, %25
  %27 = load ptr, ptr %3, align 8, !tbaa !29
  %28 = getelementptr inbounds nuw %struct.MovTextContext, ptr %27, i32 0, i32 7
  %29 = getelementptr inbounds nuw %struct.StyleBox, ptr %28, i32 0, i32 5
  store i32 %26, ptr %29, align 4, !tbaa !106
  br label %30

30:                                               ; preds = %13, %18, %14
  ret void
}

; Function Attrs: nounwind uwtable
define internal void @mov_text_alpha_cb(ptr noundef %0, i32 noundef %1, i32 noundef %2) #1 {
  %4 = alloca ptr, align 8
  %5 = alloca i32, align 4
  %6 = alloca i32, align 4
  %7 = alloca ptr, align 8
  store ptr %0, ptr %4, align 8, !tbaa !29
  store i32 %1, ptr %5, align 4, !tbaa !42
  store i32 %2, ptr %6, align 4, !tbaa !42
  call void @llvm.lifetime.start.p0(i64 8, ptr %7) #11
  %8 = load ptr, ptr %4, align 8, !tbaa !29
  store ptr %8, ptr %7, align 8, !tbaa !29
  %9 = load i32, ptr %5, align 4, !tbaa !42
  %10 = sub nsw i32 255, %9
  store i32 %10, ptr %5, align 4, !tbaa !42
  %11 = load i32, ptr %6, align 4, !tbaa !42
  %12 = icmp eq i32 %11, 1
  br i1 %12, label %13, label %17

13:                                               ; preds = %3
  %14 = load ptr, ptr %7, align 8, !tbaa !29
  %15 = load i32, ptr %5, align 4, !tbaa !42
  %16 = trunc i32 %15 to i8
  call void @mov_text_alpha_set(ptr noundef %14, i8 noundef zeroext %16)
  br label %91

17:                                               ; preds = %3
  %18 = load i32, ptr %6, align 4, !tbaa !42
  %19 = icmp eq i32 %18, 2
  br i1 %19, label %20, label %90

20:                                               ; preds = %17
  %21 = load ptr, ptr %7, align 8, !tbaa !29
  %22 = getelementptr inbounds nuw %struct.MovTextContext, ptr %21, i32 0, i32 11
  %23 = load i8, ptr %22, align 8, !tbaa !48
  %24 = zext i8 %23 to i32
  %25 = and i32 %24, 4
  %26 = icmp ne i32 %25, 0
  br i1 %26, label %35, label %27

27:                                               ; preds = %20
  %28 = load ptr, ptr %7, align 8, !tbaa !29
  %29 = getelementptr inbounds nuw %struct.MovTextContext, ptr %28, i32 0, i32 7
  %30 = getelementptr inbounds nuw %struct.StyleBox, ptr %29, i32 0, i32 5
  %31 = load i32, ptr %30, align 4, !tbaa !106
  %32 = load ptr, ptr %7, align 8, !tbaa !29
  %33 = getelementptr inbounds nuw %struct.MovTextContext, ptr %32, i32 0, i32 10
  %34 = getelementptr inbounds nuw %struct.HilightcolorBox, ptr %33, i32 0, i32 0
  store i32 %31, ptr %34, align 4, !tbaa !114
  br label %35

35:                                               ; preds = %27, %20
  %36 = load ptr, ptr %7, align 8, !tbaa !29
  %37 = getelementptr inbounds nuw %struct.MovTextContext, ptr %36, i32 0, i32 11
  %38 = load i8, ptr %37, align 8, !tbaa !48
  %39 = zext i8 %38 to i32
  %40 = and i32 %39, 2
  %41 = icmp ne i32 %40, 0
  br i1 %41, label %42, label %53

42:                                               ; preds = %35
  %43 = load ptr, ptr %7, align 8, !tbaa !29
  %44 = getelementptr inbounds nuw %struct.MovTextContext, ptr %43, i32 0, i32 9
  %45 = getelementptr inbounds nuw %struct.HighlightBox, ptr %44, i32 0, i32 0
  %46 = load i16, ptr %45, align 8, !tbaa !115
  %47 = zext i16 %46 to i32
  %48 = load ptr, ptr %7, align 8, !tbaa !29
  %49 = getelementptr inbounds nuw %struct.MovTextContext, ptr %48, i32 0, i32 13
  %50 = load i16, ptr %49, align 4, !tbaa !46
  %51 = zext i16 %50 to i32
  %52 = icmp eq i32 %47, %51
  br i1 %52, label %53, label %82

53:                                               ; preds = %42, %35
  %54 = load ptr, ptr %7, align 8, !tbaa !29
  %55 = getelementptr inbounds nuw %struct.MovTextContext, ptr %54, i32 0, i32 11
  %56 = load i8, ptr %55, align 8, !tbaa !48
  %57 = zext i8 %56 to i32
  %58 = or i32 %57, 4
  %59 = trunc i32 %58 to i8
  store i8 %59, ptr %55, align 8, !tbaa !48
  %60 = load ptr, ptr %7, align 8, !tbaa !29
  %61 = getelementptr inbounds nuw %struct.MovTextContext, ptr %60, i32 0, i32 11
  %62 = load i8, ptr %61, align 8, !tbaa !48
  %63 = zext i8 %62 to i32
  %64 = or i32 %63, 2
  %65 = trunc i32 %64 to i8
  store i8 %65, ptr %61, align 8, !tbaa !48
  %66 = load ptr, ptr %7, align 8, !tbaa !29
  %67 = getelementptr inbounds nuw %struct.MovTextContext, ptr %66, i32 0, i32 13
  %68 = load i16, ptr %67, align 4, !tbaa !46
  %69 = load ptr, ptr %7, align 8, !tbaa !29
  %70 = getelementptr inbounds nuw %struct.MovTextContext, ptr %69, i32 0, i32 9
  %71 = getelementptr inbounds nuw %struct.HighlightBox, ptr %70, i32 0, i32 0
  store i16 %68, ptr %71, align 8, !tbaa !115
  %72 = load ptr, ptr %7, align 8, !tbaa !29
  %73 = getelementptr inbounds nuw %struct.MovTextContext, ptr %72, i32 0, i32 10
  %74 = getelementptr inbounds nuw %struct.HilightcolorBox, ptr %73, i32 0, i32 0
  %75 = load i32, ptr %74, align 4, !tbaa !114
  %76 = and i32 %75, -256
  %77 = load i32, ptr %5, align 4, !tbaa !42
  %78 = or i32 %76, %77
  %79 = load ptr, ptr %7, align 8, !tbaa !29
  %80 = getelementptr inbounds nuw %struct.MovTextContext, ptr %79, i32 0, i32 10
  %81 = getelementptr inbounds nuw %struct.HilightcolorBox, ptr %80, i32 0, i32 0
  store i32 %78, ptr %81, align 4, !tbaa !114
  br label %89

82:                                               ; preds = %42
  %83 = load ptr, ptr %7, align 8, !tbaa !29
  %84 = getelementptr inbounds nuw %struct.MovTextContext, ptr %83, i32 0, i32 13
  %85 = load i16, ptr %84, align 4, !tbaa !46
  %86 = load ptr, ptr %7, align 8, !tbaa !29
  %87 = getelementptr inbounds nuw %struct.MovTextContext, ptr %86, i32 0, i32 9
  %88 = getelementptr inbounds nuw %struct.HighlightBox, ptr %87, i32 0, i32 1
  store i16 %85, ptr %88, align 2, !tbaa !116
  br label %89

89:                                               ; preds = %82, %53
  br label %90

90:                                               ; preds = %89, %17
  br label %91

91:                                               ; preds = %90, %13
  call void @llvm.lifetime.end.p0(i64 8, ptr %7) #11
  ret void
}