; Function Attrs: nounwind uwtable
define internal void @mov_text_alpha_cb(ptr noundef %0, i32 noundef %1, i32 noundef %2) #1 {
  %4 = sub nsw i32 255, %1
  switch i32 %2, label %mov_text_alpha_set.exit [
    i32 1, label %5
    i32 2, label %18
  ]

5:                                                ; preds = %3
  %6 = trunc i32 %4 to i8
  %7 = getelementptr inbounds nuw i8, ptr %0, i64 60
  %8 = load i32, ptr %7, align 4, !tbaa !97
  %9 = and i32 %4, 255
  %10 = trunc i32 %8 to i8
  %11 = icmp eq i8 %6, %10
  br i1 %11, label %mov_text_alpha_set.exit, label %12

12:                                               ; preds = %5
  %13 = tail call fastcc i32 @mov_text_style_start(ptr noundef nonnull %0)
  %.not.i = icmp eq i32 %13, 0
  br i1 %.not.i, label %mov_text_alpha_set.exit, label %14

14:                                               ; preds = %12
  %15 = load i32, ptr %7, align 4, !tbaa !97
  %16 = and i32 %15, -256
  %17 = or disjoint i32 %16, %9
  store i32 %17, ptr %7, align 4, !tbaa !97
  br label %mov_text_alpha_set.exit

18:                                               ; preds = %3
  %19 = getelementptr inbounds nuw i8, ptr %0, i64 1096
  %20 = load i8, ptr %19, align 8, !tbaa !76
  %21 = and i8 %20, 4
  %.not = icmp eq i8 %21, 0
  br i1 %.not, label %22, label %26

22:                                               ; preds = %18
  %23 = getelementptr inbounds nuw i8, ptr %0, i64 60
  %24 = load i32, ptr %23, align 4, !tbaa !97
  %25 = getelementptr inbounds nuw i8, ptr %0, i64 1092
  store i32 %24, ptr %25, align 4, !tbaa !108
  br label %26

26:                                               ; preds = %22, %18
  %27 = and i8 %20, 2
  %.not20 = icmp eq i8 %27, 0
  br i1 %.not20, label %._crit_edge, label %28

._crit_edge:                                      ; preds = %26
  %.phi.trans.insert = getelementptr inbounds nuw i8, ptr %0, i64 1116
  %.pre = load i16, ptr %.phi.trans.insert, align 4, !tbaa !74
  br label %34

28:                                               ; preds = %26
  %29 = getelementptr inbounds nuw i8, ptr %0, i64 1088
  %30 = load i16, ptr %29, align 8, !tbaa !109
  %31 = getelementptr inbounds nuw i8, ptr %0, i64 1116
  %32 = load i16, ptr %31, align 4, !tbaa !74
  %33 = icmp eq i16 %30, %32
  br i1 %33, label %34, label %42

34:                                               ; preds = %._crit_edge, %28
  %35 = phi i16 [ %.pre, %._crit_edge ], [ %30, %28 ]
  %36 = or i8 %20, 6
  store i8 %36, ptr %19, align 8, !tbaa !76
  %37 = getelementptr inbounds nuw i8, ptr %0, i64 1088
  store i16 %35, ptr %37, align 8, !tbaa !109
  %38 = getelementptr inbounds nuw i8, ptr %0, i64 1092
  %39 = load i32, ptr %38, align 4, !tbaa !108
  %40 = and i32 %39, -256
  %41 = or i32 %40, %4
  store i32 %41, ptr %38, align 4, !tbaa !108
  br label %mov_text_alpha_set.exit

42:                                               ; preds = %28
  %43 = getelementptr inbounds nuw i8, ptr %0, i64 1090
  store i16 %32, ptr %43, align 2, !tbaa !110
  br label %mov_text_alpha_set.exit

mov_text_alpha_set.exit:                          ; preds = %14, %12, %5, %3, %42, %34
  ret void
}